; Function Attrs: mustprogress nounwind uwtable
define hidden void @_ZNK23vternlog_reg_maskedNode4emitEP17C2_MacroAssemblerP13PhaseRegAlloc(ptr noundef nonnull align 8 dereferenceable(120) %0, ptr noundef %1, ptr noundef %2) unnamed_addr #3 align 2 {
  %4 = getelementptr inbounds i8, ptr %0, i64 80
  %5 = load ptr, ptr %4, align 8
  %6 = load ptr, ptr %5, align 8
  %7 = getelementptr inbounds i8, ptr %6, i64 8
  %8 = load ptr, ptr %7, align 8
  %9 = tail call noundef i32 %8(ptr noundef nonnull align 8 dereferenceable(8) %5) #23
  %10 = getelementptr inbounds i8, ptr %0, i64 88
  %11 = load ptr, ptr %10, align 8
  %12 = load ptr, ptr %11, align 8
  %13 = getelementptr inbounds i8, ptr %12, i64 8
  %14 = load ptr, ptr %13, align 8
  %15 = tail call noundef i32 %14(ptr noundef nonnull align 8 dereferenceable(8) %11) #23
  %16 = getelementptr inbounds i8, ptr %0, i64 96
  %17 = load ptr, ptr %16, align 8
  %18 = load ptr, ptr %17, align 8
  %19 = getelementptr inbounds i8, ptr %18, i64 8
  %20 = load ptr, ptr %19, align 8
  %21 = tail call noundef i32 %20(ptr noundef nonnull align 8 dereferenceable(8) %17) #23
  %22 = getelementptr inbounds i8, ptr %0, i64 104
  %23 = load ptr, ptr %22, align 8
  %24 = load ptr, ptr %23, align 8
  %25 = getelementptr inbounds i8, ptr %24, i64 8
  %26 = load ptr, ptr %25, align 8
  %27 = tail call noundef i32 %26(ptr noundef nonnull align 8 dereferenceable(8) %23) #23
  %28 = tail call noundef i32 @_ZN7Matcher22vector_length_in_bytesEPK4Node(ptr noundef nonnull %0) #23
  switch i32 %28, label %31 [
    i32 4, label %_ZL22vector_length_encodingPK4Node.exit
    i32 8, label %_ZL22vector_length_encodingPK4Node.exit
    i32 16, label %_ZL22vector_length_encodingPK4Node.exit
    i32 32, label %29
    i32 64, label %30
  ]

29:                                               ; preds = %3
  br label %_ZL22vector_length_encodingPK4Node.exit

30:                                               ; preds = %3
  br label %_ZL22vector_length_encodingPK4Node.exit

31:                                               ; preds = %3
  %32 = load ptr, ptr @g_assert_poison, align 8
  store i8 88, ptr %32, align 1
  tail call void @_Z28report_should_not_reach_herePKci(ptr noundef nonnull @.str.22, i32 noundef 1228) #24
  unreachable

_ZL22vector_length_encodingPK4Node.exit:          ; preds = %3, %3, %3, %29, %30
  %.0.i.i = phi i32 [ 2, %30 ], [ 1, %29 ], [ 0, %3 ], [ 0, %3 ], [ 0, %3 ]
  %33 = add i32 %9, 1
  %34 = add i32 %15, %33
  %35 = add i32 %21, %34
  %36 = add i32 %35, %27
  %37 = tail call noundef zeroext i8 @_ZN7Matcher25vector_element_basic_typeEPK4Node(ptr noundef nonnull %0) #23
  %38 = load ptr, ptr %4, align 8
  %39 = load ptr, ptr %38, align 8
  %40 = getelementptr inbounds i8, ptr %39, i64 40
  %41 = load ptr, ptr %40, align 8
  %42 = tail call noundef i32 %41(ptr noundef nonnull align 8 dereferenceable(8) %38, ptr noundef %2, ptr noundef nonnull %0, i32 noundef 1) #23
  %or.cond.i.i = icmp ult i32 %42, 32
  %spec.select.i.i = select i1 %or.cond.i.i, i32 %42, i32 -1
  %43 = load ptr, ptr %22, align 8
  %44 = load ptr, ptr %43, align 8
  %45 = getelementptr inbounds i8, ptr %44, i64 48
  %46 = load ptr, ptr %45, align 8
  %47 = tail call noundef i64 %46(ptr noundef nonnull align 8 dereferenceable(8) %43) #23
  %48 = trunc i64 %47 to i32
  %49 = getelementptr inbounds i8, ptr %0, i64 112
  %50 = load ptr, ptr %49, align 8
  %51 = load ptr, ptr %50, align 8
  %52 = getelementptr inbounds i8, ptr %51, i64 40
  %53 = load ptr, ptr %52, align 8
  %54 = tail call noundef i32 %53(ptr noundef nonnull align 8 dereferenceable(8) %50, ptr noundef %2, ptr noundef nonnull %0, i32 noundef %36) #23
  %or.cond.i.i18 = icmp ult i32 %54, 8
  %spec.select.i.i19 = select i1 %or.cond.i.i18, i32 %54, i32 -1
  %55 = load ptr, ptr %10, align 8
  %56 = load ptr, ptr %55, align 8
  %57 = getelementptr inbounds i8, ptr %56, i64 40
  %58 = load ptr, ptr %57, align 8
  %59 = tail call noundef i32 %58(ptr noundef nonnull align 8 dereferenceable(8) %55, ptr noundef %2, ptr noundef nonnull %0, i32 noundef %33) #23
  %or.cond.i.i20 = icmp ult i32 %59, 32
  %spec.select.i.i21 = select i1 %or.cond.i.i20, i32 %59, i32 -1
  %60 = load ptr, ptr %16, align 8
  %61 = load ptr, ptr %60, align 8
  %62 = getelementptr inbounds i8, ptr %61, i64 40
  %63 = load ptr, ptr %62, align 8
  %64 = tail call noundef i32 %63(ptr noundef nonnull align 8 dereferenceable(8) %60, ptr noundef %2, ptr noundef nonnull %0, i32 noundef %34) #23
  %or.cond.i.i22 = icmp ult i32 %64, 32
  %spec.select.i.i23 = select i1 %or.cond.i.i22, i32 %64, i32 -1
  tail call void @_ZN17C2_MacroAssembler10evpternlogE11XMMRegisteri9KRegisterS0_S0_b9BasicTypei(ptr noundef nonnull align 8 dereferenceable(40) %1, i32 %spec.select.i.i, i32 noundef %48, i32 %spec.select.i.i19, i32 %spec.select.i.i21, i32 %spec.select.i.i23, i1 noundef zeroext true, i8 noundef zeroext %37, i32 noundef %.0.i.i) #23
  ret void
}